target datalayout = "e-m:e-p270:32:32-p271:32:32-p272:64:64-i64:64-i128:128-f80:128-n8:16:32:64-S128"
target triple = "x86_64-pc-linux-gnu"

%struct.AVChannelLayout = type { i32, i32, %union.anon.1, ptr }
%union.anon.1 = type { i64 }
%struct.AVRational = type { i32, i32 }
%struct.FillBordersContext = type { ptr, i32, i32, i32, i32, i32, i32, i32, [4 x %struct.Borders], [4 x i32], [4 x i32], [4 x i8], [4 x i8], [4 x i8], ptr }
%struct.Borders = type { i32, i32, i32, i32 }
%struct.AVFrame = type { [8 x ptr], [8 x i32], ptr, i32, i32, i32, i32, i32, %struct.AVRational, i64, i64, %struct.AVRational, i32, ptr, i32, i32, [8 x ptr], ptr, i32, ptr, i32, i32, i32, i32, i32, i32, i32, i64, ptr, i32, ptr, ptr, i64, i64, i64, i64, ptr, %struct.AVChannelLayout, i64 }

; Function Attrs: nounwind uwtable
define internal void @reflect_borders16(ptr noundef %0, ptr noundef %1) #0 {
  %3 = alloca ptr, align 8
  %4 = alloca ptr, align 8
  %5 = alloca i32, align 4
  %6 = alloca i32, align 4
  %7 = alloca i32, align 4
  %8 = alloca ptr, align 8
  %9 = alloca i64, align 8
  store ptr %0, ptr %3, align 8, !tbaa !37
  store ptr %1, ptr %4, align 8, !tbaa !26
  call void @llvm.lifetime.start.p0(i64 4, ptr %5) #8
  call void @llvm.lifetime.start.p0(i64 4, ptr %6) #8
  call void @llvm.lifetime.start.p0(i64 4, ptr %7) #8
  store i32 0, ptr %5, align 4, !tbaa !11
  br label %10

10:                                               ; preds = %283, %2
  %11 = load i32, ptr %5, align 4, !tbaa !11
  %12 = load ptr, ptr %3, align 8, !tbaa !37
  %13 = getelementptr inbounds nuw %struct.FillBordersContext, ptr %12, i32 0, i32 6
  %14 = load i32, ptr %13, align 4, !tbaa !48
  %15 = icmp slt i32 %11, %14
  br i1 %15, label %16, label %286

16:                                               ; preds = %10
  call void @llvm.lifetime.start.p0(i64 8, ptr %8) #8
  %17 = load ptr, ptr %4, align 8, !tbaa !26
  %18 = getelementptr inbounds nuw %struct.AVFrame, ptr %17, i32 0, i32 0
  %19 = load i32, ptr %5, align 4, !tbaa !11
  %20 = sext i32 %19 to i64
  %21 = getelementptr inbounds [8 x ptr], ptr %18, i64 0, i64 %20
  %22 = load ptr, ptr %21, align 8, !tbaa !9
  store ptr %22, ptr %8, align 8, !tbaa !75
  call void @llvm.lifetime.start.p0(i64 8, ptr %9) #8
  %23 = load ptr, ptr %4, align 8, !tbaa !26
  %24 = getelementptr inbounds nuw %struct.AVFrame, ptr %23, i32 0, i32 1
  %25 = load i32, ptr %5, align 4, !tbaa !11
  %26 = sext i32 %25 to i64
  %27 = getelementptr inbounds [8 x i32], ptr %24, i64 0, i64 %26
  %28 = load i32, ptr %27, align 4, !tbaa !11
  %29 = sdiv i32 %28, 2
  %30 = sext i32 %29 to i64
  store i64 %30, ptr %9, align 8, !tbaa !70
  %31 = load ptr, ptr %3, align 8, !tbaa !37
  %32 = getelementptr inbounds nuw %struct.FillBordersContext, ptr %31, i32 0, i32 8
  %33 = load i32, ptr %5, align 4, !tbaa !11
  %34 = sext i32 %33 to i64
  %35 = getelementptr inbounds [4 x %struct.Borders], ptr %32, i64 0, i64 %34
  %36 = getelementptr inbounds nuw %struct.Borders, ptr %35, i32 0, i32 2
  %37 = load i32, ptr %36, align 4, !tbaa !63
  store i32 %37, ptr %6, align 4, !tbaa !11
  br label %38

38:                                               ; preds = %169, %16
  %39 = load i32, ptr %6, align 4, !tbaa !11
  %40 = load ptr, ptr %3, align 8, !tbaa !37
  %41 = getelementptr inbounds nuw %struct.FillBordersContext, ptr %40, i32 0, i32 10
  %42 = load i32, ptr %5, align 4, !tbaa !11
  %43 = sext i32 %42 to i64
  %44 = getelementptr inbounds [4 x i32], ptr %41, i64 0, i64 %43
  %45 = load i32, ptr %44, align 4, !tbaa !11
  %46 = load ptr, ptr %3, align 8, !tbaa !37
  %47 = getelementptr inbounds nuw %struct.FillBordersContext, ptr %46, i32 0, i32 8
  %48 = load i32, ptr %5, align 4, !tbaa !11
  %49 = sext i32 %48 to i64
  %50 = getelementptr inbounds [4 x %struct.Borders], ptr %47, i64 0, i64 %49
  %51 = getelementptr inbounds nuw %struct.Borders, ptr %50, i32 0, i32 3
  %52 = load i32, ptr %51, align 4, !tbaa !64
  %53 = sub nsw i32 %45, %52
  %54 = icmp slt i32 %39, %53
  br i1 %54, label %55, label %172

55:                                               ; preds = %38
  store i32 0, ptr %7, align 4, !tbaa !11
  br label %56

56:                                               ; preds = %96, %55
  %57 = load i32, ptr %7, align 4, !tbaa !11
  %58 = load ptr, ptr %3, align 8, !tbaa !37
  %59 = getelementptr inbounds nuw %struct.FillBordersContext, ptr %58, i32 0, i32 8
  %60 = load i32, ptr %5, align 4, !tbaa !11
  %61 = sext i32 %60 to i64
  %62 = getelementptr inbounds [4 x %struct.Borders], ptr %59, i64 0, i64 %61
  %63 = getelementptr inbounds nuw %struct.Borders, ptr %62, i32 0, i32 0
  %64 = load i32, ptr %63, align 4, !tbaa !60
  %65 = icmp slt i32 %57, %64
  br i1 %65, label %66, label %99

66:                                               ; preds = %56
  %67 = load ptr, ptr %8, align 8, !tbaa !75
  %68 = load i32, ptr %6, align 4, !tbaa !11
  %69 = sext i32 %68 to i64
  %70 = load i64, ptr %9, align 8, !tbaa !70
  %71 = mul nsw i64 %69, %70
  %72 = load ptr, ptr %3, align 8, !tbaa !37
  %73 = getelementptr inbounds nuw %struct.FillBordersContext, ptr %72, i32 0, i32 8
  %74 = load i32, ptr %5, align 4, !tbaa !11
  %75 = sext i32 %74 to i64
  %76 = getelementptr inbounds [4 x %struct.Borders], ptr %73, i64 0, i64 %75
  %77 = getelementptr inbounds nuw %struct.Borders, ptr %76, i32 0, i32 0
  %78 = load i32, ptr %77, align 4, !tbaa !60
  %79 = mul nsw i32 %78, 2
  %80 = sext i32 %79 to i64
  %81 = add nsw i64 %71, %80
  %82 = load i32, ptr %7, align 4, !tbaa !11
  %83 = sext i32 %82 to i64
  %84 = sub nsw i64 %81, %83
  %85 = getelementptr inbounds i16, ptr %67, i64 %84
  %86 = load i16, ptr %85, align 2, !tbaa !77
  %87 = load ptr, ptr %8, align 8, !tbaa !75
  %88 = load i32, ptr %6, align 4, !tbaa !11
  %89 = sext i32 %88 to i64
  %90 = load i64, ptr %9, align 8, !tbaa !70
  %91 = mul nsw i64 %89, %90
  %92 = load i32, ptr %7, align 4, !tbaa !11
  %93 = sext i32 %92 to i64
  %94 = add nsw i64 %91, %93
  %95 = getelementptr inbounds i16, ptr %87, i64 %94
  store i16 %86, ptr %95, align 2, !tbaa !77
  br label %96

96:                                               ; preds = %66
  %97 = load i32, ptr %7, align 4, !tbaa !11
  %98 = add nsw i32 %97, 1
  store i32 %98, ptr %7, align 4, !tbaa !11
  br label %56, !llvm.loop !115

99:                                               ; preds = %56
  store i32 0, ptr %7, align 4, !tbaa !11
  br label %100

100:                                              ; preds = %165, %99
  %101 = load i32, ptr %7, align 4, !tbaa !11
  %102 = load ptr, ptr %3, align 8, !tbaa !37
  %103 = getelementptr inbounds nuw %struct.FillBordersContext, ptr %102, i32 0, i32 8
  %104 = load i32, ptr %5, align 4, !tbaa !11
  %105 = sext i32 %104 to i64
  %106 = getelementptr inbounds [4 x %struct.Borders], ptr %103, i64 0, i64 %105
  %107 = getelementptr inbounds nuw %struct.Borders, ptr %106, i32 0, i32 1
  %108 = load i32, ptr %107, align 4, !tbaa !62
  %109 = icmp slt i32 %101, %108
  br i1 %109, label %110, label %168

110:                                              ; preds = %100
  %111 = load ptr, ptr %8, align 8, !tbaa !75
  %112 = load i32, ptr %6, align 4, !tbaa !11
  %113 = sext i32 %112 to i64
  %114 = load i64, ptr %9, align 8, !tbaa !70
  %115 = mul nsw i64 %113, %114
  %116 = load ptr, ptr %3, align 8, !tbaa !37
  %117 = getelementptr inbounds nuw %struct.FillBordersContext, ptr %116, i32 0, i32 9
  %118 = load i32, ptr %5, align 4, !tbaa !11
  %119 = sext i32 %118 to i64
  %120 = getelementptr inbounds [4 x i32], ptr %117, i64 0, i64 %119
  %121 = load i32, ptr %120, align 4, !tbaa !11
  %122 = sext i32 %121 to i64
  %123 = add nsw i64 %115, %122
  %124 = load ptr, ptr %3, align 8, !tbaa !37
  %125 = getelementptr inbounds nuw %struct.FillBordersContext, ptr %124, i32 0, i32 8
  %126 = load i32, ptr %5, align 4, !tbaa !11
  %127 = sext i32 %126 to i64
  %128 = getelementptr inbounds [4 x %struct.Borders], ptr %125, i64 0, i64 %127
  %129 = getelementptr inbounds nuw %struct.Borders, ptr %128, i32 0, i32 1
  %130 = load i32, ptr %129, align 4, !tbaa !62
  %131 = sext i32 %130 to i64
  %132 = sub nsw i64 %123, %131
  %133 = sub nsw i64 %132, 2
  %134 = load i32, ptr %7, align 4, !tbaa !11
  %135 = sext i32 %134 to i64
  %136 = sub nsw i64 %133, %135
  %137 = getelementptr inbounds i16, ptr %111, i64 %136
  %138 = load i16, ptr %137, align 2, !tbaa !77
  %139 = load ptr, ptr %8, align 8, !tbaa !75
  %140 = load i32, ptr %6, align 4, !tbaa !11
  %141 = sext i32 %140 to i64
  %142 = load i64, ptr %9, align 8, !tbaa !70
  %143 = mul nsw i64 %141, %142
  %144 = load ptr, ptr %3, align 8, !tbaa !37
  %145 = getelementptr inbounds nuw %struct.FillBordersContext, ptr %144, i32 0, i32 9
  %146 = load i32, ptr %5, align 4, !tbaa !11
  %147 = sext i32 %146 to i64
  %148 = getelementptr inbounds [4 x i32], ptr %145, i64 0, i64 %147
  %149 = load i32, ptr %148, align 4, !tbaa !11
  %150 = sext i32 %149 to i64
  %151 = add nsw i64 %143, %150
  %152 = load ptr, ptr %3, align 8, !tbaa !37
  %153 = getelementptr inbounds nuw %struct.FillBordersContext, ptr %152, i32 0, i32 8
  %154 = load i32, ptr %5, align 4, !tbaa !11
  %155 = sext i32 %154 to i64
  %156 = getelementptr inbounds [4 x %struct.Borders], ptr %153, i64 0, i64 %155
  %157 = getelementptr inbounds nuw %struct.Borders, ptr %156, i32 0, i32 1
  %158 = load i32, ptr %157, align 4, !tbaa !62
  %159 = sext i32 %158 to i64
  %160 = sub nsw i64 %151, %159
  %161 = load i32, ptr %7, align 4, !tbaa !11
  %162 = sext i32 %161 to i64
  %163 = add nsw i64 %160, %162
  %164 = getelementptr inbounds i16, ptr %139, i64 %163
  store i16 %138, ptr %164, align 2, !tbaa !77
  br label %165

165:                                              ; preds = %110
  %166 = load i32, ptr %7, align 4, !tbaa !11
  %167 = add nsw i32 %166, 1
  store i32 %167, ptr %7, align 4, !tbaa !11
  br label %100, !llvm.loop !116

168:                                              ; preds = %100
  br label %169

169:                                              ; preds = %168
  %170 = load i32, ptr %6, align 4, !tbaa !11
  %171 = add nsw i32 %170, 1
  store i32 %171, ptr %6, align 4, !tbaa !11
  br label %38, !llvm.loop !117

172:                                              ; preds = %38
  store i32 0, ptr %6, align 4, !tbaa !11
  br label %173

173:                                              ; preds = %213, %172
  %174 = load i32, ptr %6, align 4, !tbaa !11
  %175 = load ptr, ptr %3, align 8, !tbaa !37
  %176 = getelementptr inbounds nuw %struct.FillBordersContext, ptr %175, i32 0, i32 8
  %177 = load i32, ptr %5, align 4, !tbaa !11
  %178 = sext i32 %177 to i64
  %179 = getelementptr inbounds [4 x %struct.Borders], ptr %176, i64 0, i64 %178
  %180 = getelementptr inbounds nuw %struct.Borders, ptr %179, i32 0, i32 2
  %181 = load i32, ptr %180, align 4, !tbaa !63
  %182 = icmp slt i32 %174, %181
  br i1 %182, label %183, label %216

183:                                              ; preds = %173
  %184 = load ptr, ptr %8, align 8, !tbaa !75
  %185 = load i32, ptr %6, align 4, !tbaa !11
  %186 = sext i32 %185 to i64
  %187 = load i64, ptr %9, align 8, !tbaa !70
  %188 = mul nsw i64 %186, %187
  %189 = getelementptr inbounds i16, ptr %184, i64 %188
  %190 = load ptr, ptr %8, align 8, !tbaa !75
  %191 = load ptr, ptr %3, align 8, !tbaa !37
  %192 = getelementptr inbounds nuw %struct.FillBordersContext, ptr %191, i32 0, i32 8
  %193 = load i32, ptr %5, align 4, !tbaa !11
  %194 = sext i32 %193 to i64
  %195 = getelementptr inbounds [4 x %struct.Borders], ptr %192, i64 0, i64 %194
  %196 = getelementptr inbounds nuw %struct.Borders, ptr %195, i32 0, i32 2
  %197 = load i32, ptr %196, align 4, !tbaa !63
  %198 = mul nsw i32 %197, 2
  %199 = load i32, ptr %6, align 4, !tbaa !11
  %200 = sub nsw i32 %198, %199
  %201 = sext i32 %200 to i64
  %202 = load i64, ptr %9, align 8, !tbaa !70
  %203 = mul nsw i64 %201, %202
  %204 = getelementptr inbounds i16, ptr %190, i64 %203
  %205 = load ptr, ptr %3, align 8, !tbaa !37
  %206 = getelementptr inbounds nuw %struct.FillBordersContext, ptr %205, i32 0, i32 9
  %207 = load i32, ptr %5, align 4, !tbaa !11
  %208 = sext i32 %207 to i64
  %209 = getelementptr inbounds [4 x i32], ptr %206, i64 0, i64 %208
  %210 = load i32, ptr %209, align 4, !tbaa !11
  %211 = mul nsw i32 %210, 2
  %212 = sext i32 %211 to i64
  call void @llvm.memcpy.p0.p0.i64(ptr align 2 %189, ptr align 2 %204, i64 %212, i1 false)
  br label %213

213:                                              ; preds = %183
  %214 = load i32, ptr %6, align 4, !tbaa !11
  %215 = add nsw i32 %214, 1
  store i32 %215, ptr %6, align 4, !tbaa !11
  br label %173, !llvm.loop !118

216:                                              ; preds = %173
  store i32 0, ptr %6, align 4, !tbaa !11
  br label %217

217:                                              ; preds = %279, %216
  %218 = load i32, ptr %6, align 4, !tbaa !11
  %219 = load ptr, ptr %3, align 8, !tbaa !37
  %220 = getelementptr inbounds nuw %struct.FillBordersContext, ptr %219, i32 0, i32 8
  %221 = load i32, ptr %5, align 4, !tbaa !11
  %222 = sext i32 %221 to i64
  %223 = getelementptr inbounds [4 x %struct.Borders], ptr %220, i64 0, i64 %222
  %224 = getelementptr inbounds nuw %struct.Borders, ptr %223, i32 0, i32 3
  %225 = load i32, ptr %224, align 4, !tbaa !64
  %226 = icmp slt i32 %218, %225
  br i1 %226, label %227, label %282

227:                                              ; preds = %217
  %228 = load ptr, ptr %8, align 8, !tbaa !75
  %229 = load ptr, ptr %3, align 8, !tbaa !37
  %230 = getelementptr inbounds nuw %struct.FillBordersContext, ptr %229, i32 0, i32 10
  %231 = load i32, ptr %5, align 4, !tbaa !11
  %232 = sext i32 %231 to i64
  %233 = getelementptr inbounds [4 x i32], ptr %230, i64 0, i64 %232
  %234 = load i32, ptr %233, align 4, !tbaa !11
  %235 = load ptr, ptr %3, align 8, !tbaa !37
  %236 = getelementptr inbounds nuw %struct.FillBordersContext, ptr %235, i32 0, i32 8
  %237 = load i32, ptr %5, align 4, !tbaa !11
  %238 = sext i32 %237 to i64
  %239 = getelementptr inbounds [4 x %struct.Borders], ptr %236, i64 0, i64 %238
  %240 = getelementptr inbounds nuw %struct.Borders, ptr %239, i32 0, i32 3
  %241 = load i32, ptr %240, align 4, !tbaa !64
  %242 = sub nsw i32 %234, %241
  %243 = load i32, ptr %6, align 4, !tbaa !11
  %244 = add nsw i32 %242, %243
  %245 = sext i32 %244 to i64
  %246 = load i64, ptr %9, align 8, !tbaa !70
  %247 = mul nsw i64 %245, %246
  %248 = getelementptr inbounds i16, ptr %228, i64 %247
  %249 = load ptr, ptr %8, align 8, !tbaa !75
  %250 = load ptr, ptr %3, align 8, !tbaa !37
  %251 = getelementptr inbounds nuw %struct.FillBordersContext, ptr %250, i32 0, i32 10
  %252 = load i32, ptr %5, align 4, !tbaa !11
  %253 = sext i32 %252 to i64
  %254 = getelementptr inbounds [4 x i32], ptr %251, i64 0, i64 %253
  %255 = load i32, ptr %254, align 4, !tbaa !11
  %256 = load ptr, ptr %3, align 8, !tbaa !37
  %257 = getelementptr inbounds nuw %struct.FillBordersContext, ptr %256, i32 0, i32 8
  %258 = load i32, ptr %5, align 4, !tbaa !11
  %259 = sext i32 %258 to i64
  %260 = getelementptr inbounds [4 x %struct.Borders], ptr %257, i64 0, i64 %259
  %261 = getelementptr inbounds nuw %struct.Borders, ptr %260, i32 0, i32 3
  %262 = load i32, ptr %261, align 4, !tbaa !64
  %263 = sub nsw i32 %255, %262
  %264 = sub nsw i32 %263, 2
  %265 = load i32, ptr %6, align 4, !tbaa !11
  %266 = sub nsw i32 %264, %265
  %267 = sext i32 %266 to i64
  %268 = load i64, ptr %9, align 8, !tbaa !70
  %269 = mul nsw i64 %267, %268
  %270 = getelementptr inbounds i16, ptr %249, i64 %269
  %271 = load ptr, ptr %3, align 8, !tbaa !37
  %272 = getelementptr inbounds nuw %struct.FillBordersContext, ptr %271, i32 0, i32 9
  %273 = load i32, ptr %5, align 4, !tbaa !11
  %274 = sext i32 %273 to i64
  %275 = getelementptr inbounds [4 x i32], ptr %272, i64 0, i64 %274
  %276 = load i32, ptr %275, align 4, !tbaa !11
  %277 = mul nsw i32 %276, 2
  %278 = sext i32 %277 to i64
  call void @llvm.memcpy.p0.p0.i64(ptr align 2 %248, ptr align 2 %270, i64 %278, i1 false)
  br label %279

279:                                              ; preds = %227
  %280 = load i32, ptr %6, align 4, !tbaa !11
  %281 = add nsw i32 %280, 1
  store i32 %281, ptr %6, align 4, !tbaa !11
  br label %217, !llvm.loop !119

282:                                              ; preds = %217
  call void @llvm.lifetime.end.p0(i64 8, ptr %9) #8
  call void @llvm.lifetime.end.p0(i64 8, ptr %8) #8
  br label %283

283:                                              ; preds = %282
  %284 = load i32, ptr %5, align 4, !tbaa !11
  %285 = add nsw i32 %284, 1
  store i32 %285, ptr %5, align 4, !tbaa !11
  br label %10, !llvm.loop !120

286:                                              ; preds = %10
  call void @llvm.lifetime.end.p0(i64 4, ptr %7) #8
  call void @llvm.lifetime.end.p0(i64 4, ptr %6) #8
  call void @llvm.lifetime.end.p0(i64 4, ptr %5) #8
  ret void
}