; Function Attrs: nofree norecurse nosync nounwind memory(readwrite, inaccessiblemem: none) uwtable
define internal void @reflect_borders16(ptr noundef readonly captures(none) %0, ptr noundef readonly captures(none) %1) #3 {
  %3 = getelementptr inbounds nuw i8, ptr %0, i64 28
  %4 = load i32, ptr %3, align 4, !tbaa !39
  %5 = icmp sgt i32 %4, 0
  br i1 %5, label %.lr.ph108, label %._crit_edge109

.lr.ph108:                                        ; preds = %2
  %6 = getelementptr inbounds nuw i8, ptr %1, i64 64
  %7 = getelementptr inbounds nuw i8, ptr %0, i64 36
  %8 = getelementptr inbounds nuw i8, ptr %0, i64 116
  %9 = getelementptr inbounds nuw i8, ptr %0, i64 100
  br label %10

10:                                               ; preds = %.lr.ph108, %._crit_edge105
  %indvars.iv122 = phi i64 [ 0, %.lr.ph108 ], [ %indvars.iv.next123, %._crit_edge105 ]
  %11 = getelementptr inbounds nuw [8 x ptr], ptr %1, i64 0, i64 %indvars.iv122
  %12 = load ptr, ptr %11, align 8, !tbaa !62
  %13 = getelementptr inbounds nuw [8 x i32], ptr %6, i64 0, i64 %indvars.iv122
  %14 = load i32, ptr %13, align 4, !tbaa !45
  %15 = sdiv i32 %14, 2
  %16 = sext i32 %15 to i64
  %17 = getelementptr inbounds nuw [4 x %struct.Borders], ptr %7, i64 0, i64 %indvars.iv122
  %18 = getelementptr inbounds nuw i8, ptr %17, i64 8
  %19 = load i32, ptr %18, align 4, !tbaa !55
  %20 = getelementptr inbounds nuw [4 x i32], ptr %8, i64 0, i64 %indvars.iv122
  %21 = load i32, ptr %20, align 4, !tbaa !45
  %22 = getelementptr inbounds nuw i8, ptr %17, i64 12
  %23 = load i32, ptr %22, align 4, !tbaa !56
  %24 = sub nsw i32 %21, %23
  %25 = icmp slt i32 %19, %24
  br i1 %25, label %.preheader91.lr.ph, label %.preheader93

.preheader91.lr.ph:                               ; preds = %10
  %26 = load i32, ptr %17, align 4, !tbaa !52
  %27 = icmp sgt i32 %26, 0
  %28 = shl nsw i32 %26, 1
  %29 = sext i32 %28 to i64
  %30 = getelementptr inbounds nuw i8, ptr %17, i64 4
  %31 = load i32, ptr %30, align 4, !tbaa !54
  %32 = icmp sgt i32 %31, 0
  %33 = getelementptr inbounds nuw [4 x i32], ptr %9, i64 0, i64 %indvars.iv122
  %34 = sext i32 %31 to i64
  %35 = sext i32 %19 to i64
  %36 = sext i32 %24 to i64
  %wide.trip.count = zext nneg i32 %26 to i64
  %wide.trip.count114 = zext nneg i32 %31 to i64
  br label %.preheader91

.preheader93:                                     ; preds = %._crit_edge, %10
  %37 = icmp sgt i32 %19, 0
  br i1 %37, label %.lr.ph102, label %.preheader92

.lr.ph102:                                        ; preds = %.preheader93
  %38 = getelementptr inbounds nuw [4 x i32], ptr %9, i64 0, i64 %indvars.iv122
  br label %59

.preheader91:                                     ; preds = %.preheader91.lr.ph, %._crit_edge
  %indvars.iv116 = phi i64 [ %35, %.preheader91.lr.ph ], [ %indvars.iv.next117, %._crit_edge ]
  br i1 %27, label %.lr.ph, label %.preheader

.lr.ph:                                           ; preds = %.preheader91
  %39 = mul nsw i64 %indvars.iv116, %16
  %invariant.op = add nsw i64 %39, %29
  %40 = getelementptr i16, ptr %12, i64 %39
  br label %47

.preheader:                                       ; preds = %47, %.preheader91
  br i1 %32, label %.lr.ph97, label %._crit_edge

.lr.ph97:                                         ; preds = %.preheader
  %41 = mul nsw i64 %indvars.iv116, %16
  %42 = load i32, ptr %33, align 4, !tbaa !45
  %43 = sext i32 %42 to i64
  %44 = sub nsw i64 %41, %34
  %45 = add i64 %44, %43
  %invariant.op98 = add i64 %45, -2
  %46 = getelementptr i16, ptr %12, i64 %45
  br label %51

47:                                               ; preds = %.lr.ph, %47
  %indvars.iv = phi i64 [ 0, %.lr.ph ], [ %indvars.iv.next, %47 ]
  %.reass = sub nsw i64 %invariant.op, %indvars.iv
  %48 = getelementptr inbounds i16, ptr %12, i64 %.reass
  %49 = load i16, ptr %48, align 2, !tbaa !67
  %50 = getelementptr i16, ptr %40, i64 %indvars.iv
  store i16 %49, ptr %50, align 2, !tbaa !67
  %indvars.iv.next = add nuw nsw i64 %indvars.iv, 1
  %exitcond.not = icmp eq i64 %indvars.iv.next, %wide.trip.count
  br i1 %exitcond.not, label %.preheader, label %47, !llvm.loop !105

51:                                               ; preds = %.lr.ph97, %51
  %indvars.iv111 = phi i64 [ 0, %.lr.ph97 ], [ %indvars.iv.next112, %51 ]
  %.reass99 = sub nsw i64 %invariant.op98, %indvars.iv111
  %52 = getelementptr inbounds i16, ptr %12, i64 %.reass99
  %53 = load i16, ptr %52, align 2, !tbaa !67
  %54 = getelementptr i16, ptr %46, i64 %indvars.iv111
  store i16 %53, ptr %54, align 2, !tbaa !67
  %indvars.iv.next112 = add nuw nsw i64 %indvars.iv111, 1
  %exitcond115.not = icmp eq i64 %indvars.iv.next112, %wide.trip.count114
  br i1 %exitcond115.not, label %._crit_edge, label %51, !llvm.loop !106

._crit_edge:                                      ; preds = %51, %.preheader
  %indvars.iv.next117 = add nsw i64 %indvars.iv116, 1
  %55 = icmp slt i64 %indvars.iv.next117, %36
  br i1 %55, label %.preheader91, label %.preheader93, !llvm.loop !107

.preheader92.loopexit:                            ; preds = %59
  %.pre = load i32, ptr %22, align 4, !tbaa !56
  br label %.preheader92

.preheader92:                                     ; preds = %.preheader92.loopexit, %.preheader93
  %56 = phi i32 [ %.pre, %.preheader92.loopexit ], [ %23, %.preheader93 ]
  %57 = icmp sgt i32 %56, 0
  br i1 %57, label %.lr.ph104, label %._crit_edge105

.lr.ph104:                                        ; preds = %.preheader92
  %58 = getelementptr inbounds nuw [4 x i32], ptr %9, i64 0, i64 %indvars.iv122
  br label %75

59:                                               ; preds = %.lr.ph102, %59
  %indvars.iv119 = phi i64 [ 0, %.lr.ph102 ], [ %indvars.iv.next120, %59 ]
  %60 = phi i32 [ %19, %.lr.ph102 ], [ %72, %59 ]
  %61 = mul nsw i64 %indvars.iv119, %16
  %62 = getelementptr inbounds i16, ptr %12, i64 %61
  %63 = shl nsw i32 %60, 1
  %64 = trunc nuw nsw i64 %indvars.iv119 to i32
  %65 = sub nsw i32 %63, %64
  %66 = sext i32 %65 to i64
  %67 = mul nsw i64 %66, %16
  %68 = getelementptr inbounds i16, ptr %12, i64 %67
  %69 = load i32, ptr %38, align 4, !tbaa !45
  %70 = shl nsw i32 %69, 1
  %71 = sext i32 %70 to i64
  tail call void @llvm.memcpy.p0.p0.i64(ptr align 2 %62, ptr align 2 %68, i64 %71, i1 false)
  %indvars.iv.next120 = add nuw nsw i64 %indvars.iv119, 1
  %72 = load i32, ptr %18, align 4, !tbaa !55
  %73 = sext i32 %72 to i64
  %74 = icmp slt i64 %indvars.iv.next120, %73
  br i1 %74, label %59, label %.preheader92.loopexit, !llvm.loop !108

75:                                               ; preds = %.lr.ph104, %75
  %76 = phi i32 [ %56, %.lr.ph104 ], [ %91, %75 ]
  %.2103 = phi i32 [ 0, %.lr.ph104 ], [ %90, %75 ]
  %77 = load i32, ptr %20, align 4, !tbaa !45
  %78 = sub nsw i32 %77, %76
  %79 = add nsw i32 %78, %.2103
  %80 = sext i32 %79 to i64
  %81 = mul nsw i64 %80, %16
  %82 = getelementptr inbounds i16, ptr %12, i64 %81
  %reass.sub = sub i32 %78, %.2103
  %83 = add i32 %reass.sub, -2
  %84 = sext i32 %83 to i64
  %85 = mul nsw i64 %84, %16
  %86 = getelementptr inbounds i16, ptr %12, i64 %85
  %87 = load i32, ptr %58, align 4, !tbaa !45
  %88 = shl nsw i32 %87, 1
  %89 = sext i32 %88 to i64
  tail call void @llvm.memcpy.p0.p0.i64(ptr align 2 %82, ptr align 2 %86, i64 %89, i1 false)
  %90 = add nuw nsw i32 %.2103, 1
  %91 = load i32, ptr %22, align 4, !tbaa !56
  %92 = icmp slt i32 %90, %91
  br i1 %92, label %75, label %._crit_edge105, !llvm.loop !109

._crit_edge105:                                   ; preds = %75, %.preheader92
  %indvars.iv.next123 = add nuw nsw i64 %indvars.iv122, 1
  %93 = load i32, ptr %3, align 4, !tbaa !39
  %94 = sext i32 %93 to i64
  %95 = icmp slt i64 %indvars.iv.next123, %94
  br i1 %95, label %10, label %._crit_edge109, !llvm.loop !110

._crit_edge109:                                   ; preds = %._crit_edge105, %2
  ret void
}